; Function Attrs: mustprogress nounwind uwtable
define dso_local void @_ZN4llvm19MachineTraceMetrics13releaseMemoryEv(ptr noundef nonnull align 8 dereferenceable(456) initializes((56, 64)) %0) unnamed_addr #0 align 2 {
  %2 = getelementptr inbounds nuw i8, ptr %0, i64 56
  store ptr null, ptr %2, align 8
  %3 = getelementptr inbounds nuw i8, ptr %0, i64 376
  %4 = tail call noundef i64 @_ZNK4llvm15SmallVectorBaseIjE4sizeEv(ptr noundef nonnull align 8 dereferenceable(16) %3) #21
  %5 = getelementptr inbounds nuw i8, ptr %0, i64 384
  store i32 0, ptr %5, align 8
  %.0.ptr11 = getelementptr inbounds nuw i8, ptr %0, i64 440
  br label %6

6:                                                ; preds = %1, %13
  %.0.ptr13 = phi ptr [ %.0.ptr11, %1 ], [ %.0.ptr, %13 ]
  %.0.idx12 = phi i64 [ 440, %1 ], [ %.0.add, %13 ]
  %7 = load ptr, ptr %.0.ptr13, align 8
  %8 = icmp eq ptr %7, null
  br i1 %8, label %13, label %9

9:                                                ; preds = %6
  %10 = load ptr, ptr %7, align 8
  %11 = getelementptr inbounds nuw i8, ptr %10, i64 24
  %12 = load ptr, ptr %11, align 8
  tail call void %12(ptr noundef nonnull align 8 dereferenceable(440) %7) #21
  br label %13

13:                                               ; preds = %9, %6
  store ptr null, ptr %.0.ptr13, align 8
  %.0.add = add nuw nsw i64 %.0.idx12, 8
  %.0.ptr = getelementptr inbounds nuw i8, ptr %0, i64 %.0.add
  %.not = icmp eq i64 %.0.add, 456
  br i1 %.not, label %14, label %6

14:                                               ; preds = %13
  ret void
}